#include <math.h>
#include <stdio.h>
#include <stdlib.h>
#include <string.h>


int main()
{
  int i,j,sz[300],n,mark=0;
  scanf("%d",&n);
  for(i=0;i<n;i++)
  {
    scanf("%d",&sz[i]);
  }
  for(i=0;i<n;i++)
  {
    mark=0;
    /*if(i==6)  printf("ok"); */
    /*if(i==8)   printf("ok"); */
    if(i==0)
    {
      printf("%d",sz[0]);
    }

    if(i==n-1)
    {
      for(j=0;j<i;j++)
      {
        if(sz[i]!=sz[j])
        {
          mark++;
        }
        else if(sz[i]==sz[j])    break;
      }
      if(mark==i)  printf(",%d",sz[i]);
    }

    for(j=0;j<i;j++)
    {
      if(sz[i]!=sz[j])
      {
        mark++;
      }
      else if(sz[i]==sz[j])   break;
      if(mark==i)   printf(",%d",sz[i]);
    }
  }
  return 0;
}
